target datalayout = "e-m:e-p270:32:32-p271:32:32-p272:64:64-i64:64-i128:128-f80:128-n8:16:32:64-S128"
target triple = "x86_64-pc-linux-gnu"

%struct.avifROData = type { ptr, i64 }
%struct.avifROStream = type { ptr, i64, i64, ptr, ptr }
%struct.avifFileType = type { [4 x i8], i32, ptr, i32 }

@.str.20 = private unnamed_addr constant [10 x i8] c"Box[ftyp]\00", align 1
@.str.21 = private unnamed_addr constant [79 x i8] c"Box[ftyp] contains a compatible brands section that isn't divisible by 4 [%zu]\00", align 1

; Function Attrs: nounwind uwtable
define internal i32 @avifParseFileTypeBox(ptr noundef %0, ptr noundef %1, i64 noundef %2, ptr noundef %3) #0 {
  %5 = alloca i32, align 4
  %6 = alloca ptr, align 8
  %7 = alloca ptr, align 8
  %8 = alloca i64, align 8
  %9 = alloca ptr, align 8
  %10 = alloca %struct.avifROStream, align 8
  %11 = alloca %struct.avifROData, align 8
  %12 = alloca i64, align 8
  store ptr %0, ptr %6, align 8
  store ptr %1, ptr %7, align 8
  store i64 %2, ptr %8, align 8
  store ptr %3, ptr %9, align 8
  %13 = load ptr, ptr %7, align 8
  %14 = getelementptr inbounds nuw %struct.avifROData, ptr %11, i32 0, i32 0
  store ptr %13, ptr %14, align 8
  %15 = load i64, ptr %8, align 8
  %16 = getelementptr inbounds nuw %struct.avifROData, ptr %11, i32 0, i32 1
  store i64 %15, ptr %16, align 8
  %17 = load ptr, ptr %9, align 8
  call void @avifROStreamStart(ptr noundef %10, ptr noundef %11, ptr noundef %17, ptr noundef @.str.20)
  br label %18

18:                                               ; preds = %4
  %19 = load ptr, ptr %6, align 8
  %20 = getelementptr inbounds nuw %struct.avifFileType, ptr %19, i32 0, i32 0
  %21 = getelementptr inbounds [4 x i8], ptr %20, i64 0, i64 0
  %22 = call i32 @avifROStreamRead(ptr noundef %10, ptr noundef %21, i64 noundef 4)
  %23 = icmp ne i32 %22, 0
  br i1 %23, label %25, label %24

24:                                               ; preds = %18
  store i32 0, ptr %5, align 4
  br label %58

25:                                               ; preds = %18
  br label %26

26:                                               ; preds = %25
  br label %27

27:                                               ; preds = %26
  %28 = load ptr, ptr %6, align 8
  %29 = getelementptr inbounds nuw %struct.avifFileType, ptr %28, i32 0, i32 1
  %30 = call i32 @avifROStreamReadU32(ptr noundef %10, ptr noundef %29)
  %31 = icmp ne i32 %30, 0
  br i1 %31, label %33, label %32

32:                                               ; preds = %27
  store i32 0, ptr %5, align 4
  br label %58

33:                                               ; preds = %27
  br label %34

34:                                               ; preds = %33
  %35 = call i64 @avifROStreamRemainingBytes(ptr noundef %10)
  store i64 %35, ptr %12, align 8
  %36 = load i64, ptr %12, align 8
  %37 = urem i64 %36, 4
  %38 = icmp ne i64 %37, 0
  br i1 %38, label %39, label %42

39:                                               ; preds = %34
  %40 = load ptr, ptr %9, align 8
  %41 = load i64, ptr %12, align 8
  call void (ptr, ptr, ...) @avifDiagnosticsPrintf(ptr noundef %40, ptr noundef @.str.21, i64 noundef %41)
  store i32 0, ptr %5, align 4
  br label %58

42:                                               ; preds = %34
  %43 = call ptr @avifROStreamCurrent(ptr noundef %10)
  %44 = load ptr, ptr %6, align 8
  %45 = getelementptr inbounds nuw %struct.avifFileType, ptr %44, i32 0, i32 2
  store ptr %43, ptr %45, align 8
  br label %46

46:                                               ; preds = %42
  %47 = load i64, ptr %12, align 8
  %48 = call i32 @avifROStreamSkip(ptr noundef %10, i64 noundef %47)
  %49 = icmp ne i32 %48, 0
  br i1 %49, label %51, label %50

50:                                               ; preds = %46
  store i32 0, ptr %5, align 4
  br label %58

51:                                               ; preds = %46
  br label %52

52:                                               ; preds = %51
  %53 = load i64, ptr %12, align 8
  %54 = trunc i64 %53 to i32
  %55 = sdiv i32 %54, 4
  %56 = load ptr, ptr %6, align 8
  %57 = getelementptr inbounds nuw %struct.avifFileType, ptr %56, i32 0, i32 3
  store i32 %55, ptr %57, align 8
  store i32 1, ptr %5, align 4
  br label %58

58:                                               ; preds = %52, %50, %39, %32, %24
  %59 = load i32, ptr %5, align 4
  ret i32 %59
}