; Function Attrs: nounwind uwtable
define internal fastcc range(i32 0, 2) i32 @avifParseFileTypeBox(ptr noundef nonnull %0, ptr noundef %1, i64 noundef %2, ptr noundef %3) unnamed_addr #0 {
  %5 = alloca %struct.avifROStream, align 8
  %6 = alloca %struct.avifROData, align 8
  store ptr %1, ptr %6, align 8
  %7 = getelementptr inbounds nuw i8, ptr %6, i64 8
  store i64 %2, ptr %7, align 8
  call void @avifROStreamStart(ptr noundef nonnull %5, ptr noundef nonnull %6, ptr noundef %3, ptr noundef nonnull @.str.20) #13
  %8 = call i32 @avifROStreamRead(ptr noundef nonnull %5, ptr noundef nonnull %0, i64 noundef 4) #13
  %.not = icmp eq i32 %8, 0
  br i1 %.not, label %24, label %9

9:                                                ; preds = %4
  %10 = getelementptr inbounds nuw i8, ptr %0, i64 4
  %11 = call i32 @avifROStreamReadU32(ptr noundef nonnull %5, ptr noundef nonnull %10) #13
  %.not12 = icmp eq i32 %11, 0
  br i1 %.not12, label %24, label %12

12:                                               ; preds = %9
  %13 = call i64 @avifROStreamRemainingBytes(ptr noundef nonnull %5) #13
  %14 = and i64 %13, 3
  %.not13 = icmp eq i64 %14, 0
  br i1 %.not13, label %16, label %15

15:                                               ; preds = %12
  call void (ptr, ptr, ...) @avifDiagnosticsPrintf(ptr noundef %3, ptr noundef nonnull @.str.21, i64 noundef %13) #13
  br label %24

16:                                               ; preds = %12
  %17 = call ptr @avifROStreamCurrent(ptr noundef nonnull %5) #13
  %18 = getelementptr inbounds nuw i8, ptr %0, i64 8
  store ptr %17, ptr %18, align 8
  %19 = call i32 @avifROStreamSkip(ptr noundef nonnull %5, i64 noundef %13) #13
  %.not14 = icmp eq i32 %19, 0
  br i1 %.not14, label %24, label %20

20:                                               ; preds = %16
  %21 = trunc i64 %13 to i32
  %22 = ashr exact i32 %21, 2
  %23 = getelementptr inbounds nuw i8, ptr %0, i64 16
  store i32 %22, ptr %23, align 8
  br label %24

24:                                               ; preds = %16, %9, %4, %20, %15
  %.0 = phi i32 [ 0, %15 ], [ 1, %20 ], [ 0, %4 ], [ 0, %9 ], [ 0, %16 ]
  ret i32 %.0
}